target datalayout = "e-m:e-p270:32:32-p271:32:32-p272:64:64-i64:64-i128:128-f80:128-n8:16:32:64-S128"
target triple = "x86_64-pc-linux-gnu"

%struct.PyVarObject = type { %struct._object, i64 }
%struct._object = type { %union.anon, ptr }
%union.anon = type { i64 }
%struct.anon = type { i32, i32 }
%struct.PyCodeObject = type { %struct.PyVarObject, ptr, ptr, ptr, i32, i32, i32, i32, i32, i32, i32, i32, i32, i32, i32, i32, ptr, ptr, ptr, ptr, ptr, ptr, ptr, ptr, ptr, i64, ptr, i64, i32, ptr, [1 x i8] }
%struct._PyInterpreterFrame = type { %union._PyStackRef, ptr, %union._PyStackRef, ptr, ptr, ptr, ptr, ptr, ptr, i16, i8, i8, [1 x %union._PyStackRef] }
%union._PyStackRef = type { i64 }

; Function Attrs: alwaysinline nounwind uwtable
define internal i32 @_Py_IsImmortal(ptr noundef %0) #5 {
  %2 = alloca ptr, align 8
  store ptr %0, ptr %2, align 8, !tbaa !53
  %3 = load ptr, ptr %2, align 8, !tbaa !53
  %4 = getelementptr inbounds nuw %struct._object, ptr %3, i32 0, i32 0
  %5 = getelementptr inbounds nuw %struct.anon, ptr %4, i32 0, i32 0
  %6 = load i32, ptr %5, align 8, !tbaa !11
  %7 = icmp slt i32 %6, 0
  %8 = zext i1 %7 to i32
  ret i32 %8
}

; Function Attrs: inlinehint nounwind uwtable
define internal ptr @_PyFrame_GetCode(ptr noundef %0) #2 {
  %2 = alloca ptr, align 8
  %3 = alloca ptr, align 8
  store ptr %0, ptr %2, align 8, !tbaa !41
  call void @llvm.lifetime.start.p0(i64 8, ptr %3) #8
  %4 = load ptr, ptr %2, align 8, !tbaa !41
  %5 = getelementptr inbounds nuw %struct._PyInterpreterFrame, ptr %4, i32 0, i32 0
  %6 = load i64, ptr %5, align 8, !tbaa !11
  %7 = inttoptr i64 %6 to ptr
  store ptr %7, ptr %3, align 8, !tbaa !53
  %8 = load ptr, ptr %3, align 8, !tbaa !53
  call void @llvm.lifetime.end.p0(i64 8, ptr %3) #8
  ret ptr %8
}

; Function Attrs: alwaysinline nounwind uwtable
define internal void @Py_DECREF(ptr noundef %0) #5 {
  %2 = alloca ptr, align 8
  store ptr %0, ptr %2, align 8, !tbaa !53
  %3 = load ptr, ptr %2, align 8, !tbaa !53
  %4 = call i32 @_Py_IsImmortal(ptr noundef %3)
  %5 = icmp ne i32 %4, 0
  br i1 %5, label %6, label %7

6:                                                ; preds = %1
  br label %16

7:                                                ; preds = %1
  %8 = load ptr, ptr %2, align 8, !tbaa !53
  %9 = getelementptr inbounds nuw %struct._object, ptr %8, i32 0, i32 0
  %10 = getelementptr inbounds nuw %struct.anon, ptr %9, i32 0, i32 0
  %11 = load i32, ptr %10, align 8, !tbaa !11
  %12 = add i32 %11, -1
  store i32 %12, ptr %10, align 8, !tbaa !11
  %13 = icmp eq i32 %12, 0
  br i1 %13, label %14, label %16

14:                                               ; preds = %7
  %15 = load ptr, ptr %2, align 8, !tbaa !53
  call void @_Py_Dealloc(ptr noundef %15)
  br label %16

16:                                               ; preds = %6, %14, %7
  ret void
}

; Function Attrs: inlinehint nounwind uwtable
define internal ptr @_PyFrame_GetBytecode(ptr noundef %0) #2 {
  %2 = alloca ptr, align 8
  store ptr %0, ptr %2, align 8, !tbaa !41
  %3 = load ptr, ptr %2, align 8, !tbaa !41
  %4 = call ptr @_PyFrame_GetCode(ptr noundef %3)
  %5 = getelementptr inbounds nuw %struct.PyCodeObject, ptr %4, i32 0, i32 30
  %6 = getelementptr inbounds [1 x i8], ptr %5, i64 0, i64 0
  ret ptr %6
}

; Function Attrs: nounwind uwtable
define hidden ptr @_Py_call_instrumentation_jump(ptr noundef %0, ptr noundef %1, i32 noundef %2, ptr noundef %3, ptr noundef %4, ptr noundef %5) #0 {
  %7 = alloca ptr, align 8
  %8 = alloca ptr, align 8
  %9 = alloca ptr, align 8
  %10 = alloca i32, align 4
  %11 = alloca ptr, align 8
  %12 = alloca ptr, align 8
  %13 = alloca ptr, align 8
  %14 = alloca i32, align 4
  %15 = alloca ptr, align 8
  %16 = alloca i32, align 4
  %17 = alloca [4 x ptr], align 16
  %18 = alloca ptr, align 8
  %19 = alloca i32, align 4
  store ptr %0, ptr %8, align 8, !tbaa !12
  store ptr %1, ptr %9, align 8, !tbaa !39
  store i32 %2, ptr %10, align 4, !tbaa !9
  store ptr %3, ptr %11, align 8, !tbaa !41
  store ptr %4, ptr %12, align 8, !tbaa !12
  store ptr %5, ptr %13, align 8, !tbaa !12
  call void @llvm.lifetime.start.p0(i64 4, ptr %14) #8
  %20 = load ptr, ptr %13, align 8, !tbaa !12
  %21 = load ptr, ptr %11, align 8, !tbaa !41
  %22 = call ptr @_PyFrame_GetBytecode(ptr noundef %21)
  %23 = ptrtoint ptr %20 to i64
  %24 = ptrtoint ptr %22 to i64
  %25 = sub i64 %23, %24
  %26 = sdiv exact i64 %25, 2
  %27 = trunc i64 %26 to i32
  store i32 %27, ptr %14, align 4, !tbaa !9
  call void @llvm.lifetime.start.p0(i64 8, ptr %15) #8
  %28 = load i32, ptr %14, align 4, !tbaa !9
  %29 = mul i32 %28, 2
  %30 = sext i32 %29 to i64
  %31 = call ptr @PyLong_FromLong(i64 noundef %30)
  store ptr %31, ptr %15, align 8, !tbaa !53
  %32 = load ptr, ptr %15, align 8, !tbaa !53
  %33 = icmp eq ptr %32, null
  br i1 %33, label %34, label %35

34:                                               ; preds = %6
  store ptr null, ptr %7, align 8
  store i32 1, ptr %16, align 4
  br label %65

35:                                               ; preds = %6
  call void @llvm.lifetime.start.p0(i64 32, ptr %17) #8
  call void @llvm.memset.p0.i64(ptr align 16 %17, i8 0, i64 32, i1 false)
  %36 = getelementptr inbounds ptr, ptr %17, i64 3
  %37 = load ptr, ptr %15, align 8, !tbaa !53
  store ptr %37, ptr %36, align 8, !tbaa !53
  call void @llvm.lifetime.start.p0(i64 8, ptr %18) #8
  %38 = load ptr, ptr %11, align 8, !tbaa !41
  %39 = getelementptr inbounds nuw %struct._PyInterpreterFrame, ptr %38, i32 0, i32 7
  %40 = load ptr, ptr %39, align 8, !tbaa !59
  store ptr %40, ptr %18, align 8, !tbaa !12
  call void @llvm.lifetime.start.p0(i64 4, ptr %19) #8
  %41 = load ptr, ptr %8, align 8, !tbaa !12
  %42 = load ptr, ptr %9, align 8, !tbaa !39
  %43 = load i32, ptr %10, align 4, !tbaa !9
  %44 = load ptr, ptr %11, align 8, !tbaa !41
  %45 = load ptr, ptr %12, align 8, !tbaa !12
  %46 = getelementptr inbounds [4 x ptr], ptr %17, i64 0, i64 0
  %47 = call i32 @call_instrumentation_vector(ptr noundef %41, ptr noundef %42, i32 noundef %43, ptr noundef %44, ptr noundef %45, i64 noundef 3, ptr noundef %46)
  store i32 %47, ptr %19, align 4, !tbaa !9
  %48 = load ptr, ptr %15, align 8, !tbaa !53
  call void @Py_DECREF(ptr noundef %48)
  %49 = load i32, ptr %19, align 4, !tbaa !9
  %50 = icmp ne i32 %49, 0
  br i1 %50, label %51, label %52

51:                                               ; preds = %35
  store ptr null, ptr %7, align 8
  store i32 1, ptr %16, align 4
  br label %64

52:                                               ; preds = %35
  %53 = load ptr, ptr %11, align 8, !tbaa !41
  %54 = getelementptr inbounds nuw %struct._PyInterpreterFrame, ptr %53, i32 0, i32 7
  %55 = load ptr, ptr %54, align 8, !tbaa !59
  %56 = load ptr, ptr %18, align 8, !tbaa !12
  %57 = icmp ne ptr %55, %56
  br i1 %57, label %58, label %62

58:                                               ; preds = %52
  %59 = load ptr, ptr %11, align 8, !tbaa !41
  %60 = getelementptr inbounds nuw %struct._PyInterpreterFrame, ptr %59, i32 0, i32 7
  %61 = load ptr, ptr %60, align 8, !tbaa !59
  store ptr %61, ptr %7, align 8
  store i32 1, ptr %16, align 4
  br label %64

62:                                               ; preds = %52
  %63 = load ptr, ptr %13, align 8, !tbaa !12
  store ptr %63, ptr %7, align 8
  store i32 1, ptr %16, align 4
  br label %64

64:                                               ; preds = %62, %58, %51
  call void @llvm.lifetime.end.p0(i64 4, ptr %19) #8
  call void @llvm.lifetime.end.p0(i64 8, ptr %18) #8
  call void @llvm.lifetime.end.p0(i64 32, ptr %17) #8
  br label %65

65:                                               ; preds = %64, %34
  call void @llvm.lifetime.end.p0(i64 8, ptr %15) #8
  call void @llvm.lifetime.end.p0(i64 4, ptr %14) #8
  %66 = load ptr, ptr %7, align 8
  ret ptr %66
}