; Function Attrs: nounwind uwtable
define hidden ptr @_Py_call_instrumentation_jump(ptr noundef %0, ptr noundef %1, i32 noundef %2, ptr noundef readonly captures(none) %3, ptr noundef %4, ptr noundef %5) local_unnamed_addr #2 {
  %7 = alloca [4 x ptr], align 16
  %.val = load i64, ptr %3, align 8, !tbaa !33
  %8 = ptrtoint ptr %5 to i64
  %.neg = add i64 %8, 4294967088
  %9 = sub i64 %.neg, %.val
  %10 = shl i64 %9, 32
  %sext = ashr exact i64 %10, 32
  %11 = and i64 %sext, -2
  %12 = tail call ptr @PyLong_FromLong(i64 noundef %11) #11
  %13 = icmp eq ptr %12, null
  br i1 %13, label %27, label %14

14:                                               ; preds = %6
  call void @llvm.lifetime.start.p0(i64 32, ptr nonnull %7) #11
  call void @llvm.memset.p0.i64(ptr noundef nonnull align 16 dereferenceable(32) %7, i8 0, i64 32, i1 false)
  %15 = getelementptr inbounds nuw i8, ptr %7, i64 24
  store ptr %12, ptr %15, align 8, !tbaa !46
  %16 = getelementptr inbounds nuw i8, ptr %3, i64 56
  %17 = load ptr, ptr %16, align 8, !tbaa !50
  %18 = call fastcc i32 @call_instrumentation_vector(ptr noundef %0, ptr noundef %1, i32 noundef %2, ptr noundef nonnull %3, ptr noundef %4, i64 noundef 3, ptr noundef %7)
  %19 = load i32, ptr %12, align 8, !tbaa !33
  %.not.i = icmp sgt i32 %19, -1
  br i1 %.not.i, label %20, label %Py_DECREF.exit

20:                                               ; preds = %14
  %21 = add nsw i32 %19, -1
  store i32 %21, ptr %12, align 8, !tbaa !33
  %22 = icmp eq i32 %21, 0
  br i1 %22, label %23, label %Py_DECREF.exit

23:                                               ; preds = %20
  call void @_Py_Dealloc(ptr noundef nonnull %12) #11
  br label %Py_DECREF.exit

Py_DECREF.exit:                                   ; preds = %14, %20, %23
  %.not = icmp eq i32 %18, 0
  br i1 %.not, label %24, label %26

24:                                               ; preds = %Py_DECREF.exit
  %25 = load ptr, ptr %16, align 8, !tbaa !50
  %.not19 = icmp eq ptr %25, %17
  %. = select i1 %.not19, ptr %5, ptr %25
  br label %26

26:                                               ; preds = %24, %Py_DECREF.exit
  %.1 = phi ptr [ null, %Py_DECREF.exit ], [ %., %24 ]
  call void @llvm.lifetime.end.p0(i64 32, ptr nonnull %7) #11
  br label %27

27:                                               ; preds = %6, %26
  %.0 = phi ptr [ %.1, %26 ], [ null, %6 ]
  ret ptr %.0
}